; Function Attrs: mustprogress null_pointer_is_valid sspstrong uwtable
define void @_ZNK11CaptureFile13displayFilterEv(ptr dead_on_unwind noalias writable writeonly sret(%class.QString) align 8 captures(none) initializes((0, 24)) %0, ptr noundef readonly align 8 captures(none) dereferenceable_or_null(48) %1) local_unnamed_addr #5 align 2 personality ptr @__gxx_personality_v0 {
  %3 = alloca %class.QString, align 8
  %4 = getelementptr inbounds nuw i8, ptr %1, i64 16
  %5 = load ptr, ptr %4, align 8
  %.not.i = icmp eq ptr %5, null
  br i1 %.not.i, label %_ZNK11CaptureFile7isValidEv.exit, label %6

6:                                                ; preds = %2
  %7 = getelementptr inbounds nuw i8, ptr %5, i64 8
  %8 = load i32, ptr %7, align 8
  %switch.i = icmp ult i32 %8, 2
  br i1 %switch.i, label %_ZNK11CaptureFile7isValidEv.exit, label %9

9:                                                ; preds = %6
  %10 = getelementptr inbounds nuw i8, ptr %5, i64 152
  %11 = load ptr, ptr %10, align 8
  call void @llvm.lifetime.start.p0(i64 24, ptr nonnull %3) #20
  %.not.i.i = icmp eq ptr %11, null
  br i1 %.not.i.i, label %_ZN7QStringC2EPKc.exit, label %.split.i.i

.split.i.i:                                       ; preds = %9
  %12 = tail call noundef i64 @strlen(ptr noundef nonnull dereferenceable(1) %11) #20
  br label %_ZN7QStringC2EPKc.exit

_ZN7QStringC2EPKc.exit:                           ; preds = %9, %.split.i.i
  %.sink5.i.i = phi i64 [ %12, %.split.i.i ], [ 0, %9 ]
  call void @_ZN7QString8fromUtf8E14QByteArrayView(ptr dead_on_unwind nonnull writable sret(%class.QString) align 8 %3, i64 %.sink5.i.i, ptr %11)
  %13 = load ptr, ptr %3, align 8
  store ptr %13, ptr %0, align 8
  %14 = getelementptr inbounds nuw i8, ptr %0, i64 8
  %15 = getelementptr inbounds nuw i8, ptr %3, i64 8
  %16 = load ptr, ptr %15, align 8
  store ptr %16, ptr %14, align 8
  %17 = getelementptr inbounds nuw i8, ptr %0, i64 16
  %18 = getelementptr inbounds nuw i8, ptr %3, i64 16
  %19 = load i64, ptr %18, align 8
  store i64 %19, ptr %17, align 8
  call void @llvm.lifetime.end.p0(i64 24, ptr nonnull %3) #20
  br label %20

_ZNK11CaptureFile7isValidEv.exit:                 ; preds = %6, %2
  tail call void @llvm.memset.p0.i64(ptr noundef align 8 dereferenceable(24) dereferenceable_or_null(24) %0, i8 0, i64 24, i1 false)
  br label %20

20:                                               ; preds = %_ZNK11CaptureFile7isValidEv.exit, %_ZN7QStringC2EPKc.exit
  ret void
}